target datalayout = "e-m:e-p270:32:32-p271:32:32-p272:64:64-i64:64-i128:128-f80:128-n8:16:32:64-S128"
target triple = "x86_64-pc-linux-gnu"

%struct.BigInt = type { i32, [546 x i8] }

; Function Attrs: nounwind uwtable
define void @ff_big_div(ptr noundef %0, i8 noundef zeroext %1, ptr noundef %2) #0 {
  %4 = alloca ptr, align 8
  %5 = alloca i8, align 1
  %6 = alloca ptr, align 8
  %7 = alloca i32, align 4
  %8 = alloca ptr, align 8
  %9 = alloca i16, align 2
  %10 = alloca i16, align 2
  %11 = alloca i32, align 4
  store ptr %0, ptr %4, align 8, !tbaa !4
  store i8 %1, ptr %5, align 1, !tbaa !8
  store ptr %2, ptr %6, align 8, !tbaa !9
  call void @llvm.lifetime.start.p0(i64 4, ptr %7) #4
  call void @llvm.lifetime.start.p0(i64 8, ptr %8) #4
  call void @llvm.lifetime.start.p0(i64 2, ptr %9) #4
  call void @llvm.lifetime.start.p0(i64 2, ptr %10) #4
  %12 = load i8, ptr %5, align 1, !tbaa !8
  %13 = zext i8 %12 to i32
  %14 = and i32 %13, 255
  %15 = trunc i32 %14 to i8
  store i8 %15, ptr %5, align 1, !tbaa !8
  %16 = load i8, ptr %5, align 1, !tbaa !8
  %17 = zext i8 %16 to i32
  %18 = icmp eq i32 %17, 1
  br i1 %18, label %24, label %19

19:                                               ; preds = %3
  %20 = load ptr, ptr %4, align 8, !tbaa !4
  %21 = getelementptr inbounds nuw %struct.BigInt, ptr %20, i32 0, i32 0
  %22 = load i32, ptr %21, align 4, !tbaa !15
  %23 = icmp eq i32 %22, 0
  br i1 %23, label %24, label %26

24:                                               ; preds = %19, %3
  %25 = load ptr, ptr %6, align 8, !tbaa !9
  store i8 0, ptr %25, align 1, !tbaa !8
  store i32 1, ptr %11, align 4
  br label %121

26:                                               ; preds = %19
  %27 = load i8, ptr %5, align 1, !tbaa !8
  %28 = zext i8 %27 to i32
  %29 = icmp eq i32 %28, 0
  br i1 %29, label %30, label %54

30:                                               ; preds = %26
  %31 = load ptr, ptr %4, align 8, !tbaa !4
  %32 = getelementptr inbounds nuw %struct.BigInt, ptr %31, i32 0, i32 0
  %33 = load i32, ptr %32, align 4, !tbaa !15
  %34 = add nsw i32 %33, -1
  store i32 %34, ptr %32, align 4, !tbaa !15
  store i32 %34, ptr %7, align 4, !tbaa !13
  %35 = load ptr, ptr %4, align 8, !tbaa !4
  %36 = getelementptr inbounds nuw %struct.BigInt, ptr %35, i32 0, i32 1
  %37 = getelementptr inbounds [546 x i8], ptr %36, i64 0, i64 0
  store ptr %37, ptr %8, align 8, !tbaa !9
  %38 = load ptr, ptr %8, align 8, !tbaa !9
  %39 = load i8, ptr %38, align 1, !tbaa !8
  %40 = load ptr, ptr %6, align 8, !tbaa !9
  store i8 %39, ptr %40, align 1, !tbaa !8
  br label %41

41:                                               ; preds = %45, %30
  %42 = load i32, ptr %7, align 4, !tbaa !13
  %43 = add nsw i32 %42, -1
  store i32 %43, ptr %7, align 4, !tbaa !13
  %44 = icmp ne i32 %42, 0
  br i1 %44, label %45, label %52

45:                                               ; preds = %41
  %46 = load ptr, ptr %8, align 8, !tbaa !9
  %47 = getelementptr inbounds i8, ptr %46, i64 1
  %48 = load i8, ptr %47, align 1, !tbaa !8
  %49 = load ptr, ptr %8, align 8, !tbaa !9
  store i8 %48, ptr %49, align 1, !tbaa !8
  %50 = load ptr, ptr %8, align 8, !tbaa !9
  %51 = getelementptr inbounds nuw i8, ptr %50, i32 1
  store ptr %51, ptr %8, align 8, !tbaa !9
  br label %41, !llvm.loop !19

52:                                               ; preds = %41
  %53 = load ptr, ptr %8, align 8, !tbaa !9
  store i8 0, ptr %53, align 1, !tbaa !8
  store i32 1, ptr %11, align 4
  br label %121

54:                                               ; preds = %26
  %55 = load ptr, ptr %4, align 8, !tbaa !4
  %56 = getelementptr inbounds nuw %struct.BigInt, ptr %55, i32 0, i32 0
  %57 = load i32, ptr %56, align 4, !tbaa !15
  store i32 %57, ptr %7, align 4, !tbaa !13
  %58 = load ptr, ptr %4, align 8, !tbaa !4
  %59 = getelementptr inbounds nuw %struct.BigInt, ptr %58, i32 0, i32 1
  %60 = getelementptr inbounds [546 x i8], ptr %59, i64 0, i64 0
  %61 = load i32, ptr %7, align 4, !tbaa !13
  %62 = sext i32 %61 to i64
  %63 = getelementptr inbounds i8, ptr %60, i64 %62
  store ptr %63, ptr %8, align 8, !tbaa !9
  store i16 0, ptr %9, align 2, !tbaa !11
  br label %64

64:                                               ; preds = %68, %54
  %65 = load i32, ptr %7, align 4, !tbaa !13
  %66 = add nsw i32 %65, -1
  store i32 %66, ptr %7, align 4, !tbaa !13
  %67 = icmp ne i32 %65, 0
  br i1 %67, label %68, label %100

68:                                               ; preds = %64
  %69 = load i16, ptr %9, align 2, !tbaa !11
  %70 = zext i16 %69 to i32
  %71 = shl i32 %70, 8
  %72 = trunc i32 %71 to i16
  store i16 %72, ptr %9, align 2, !tbaa !11
  %73 = load ptr, ptr %8, align 8, !tbaa !9
  %74 = getelementptr inbounds i8, ptr %73, i32 -1
  store ptr %74, ptr %8, align 8, !tbaa !9
  %75 = load i8, ptr %74, align 1, !tbaa !8
  %76 = zext i8 %75 to i32
  %77 = load i16, ptr %9, align 2, !tbaa !11
  %78 = zext i16 %77 to i32
  %79 = add nsw i32 %78, %76
  %80 = trunc i32 %79 to i16
  store i16 %80, ptr %9, align 2, !tbaa !11
  %81 = load i16, ptr %9, align 2, !tbaa !11
  %82 = zext i16 %81 to i32
  %83 = load i8, ptr %5, align 1, !tbaa !8
  %84 = zext i8 %83 to i16
  %85 = zext i16 %84 to i32
  %86 = sdiv i32 %82, %85
  %87 = trunc i32 %86 to i16
  store i16 %87, ptr %10, align 2, !tbaa !11
  %88 = load i16, ptr %9, align 2, !tbaa !11
  %89 = zext i16 %88 to i32
  %90 = load i8, ptr %5, align 1, !tbaa !8
  %91 = zext i8 %90 to i16
  %92 = zext i16 %91 to i32
  %93 = srem i32 %89, %92
  %94 = trunc i32 %93 to i16
  store i16 %94, ptr %9, align 2, !tbaa !11
  %95 = load i16, ptr %10, align 2, !tbaa !11
  %96 = zext i16 %95 to i32
  %97 = and i32 %96, 255
  %98 = trunc i32 %97 to i8
  %99 = load ptr, ptr %8, align 8, !tbaa !9
  store i8 %98, ptr %99, align 1, !tbaa !8
  br label %64, !llvm.loop !20

100:                                              ; preds = %64
  %101 = load i16, ptr %9, align 2, !tbaa !11
  %102 = trunc i16 %101 to i8
  %103 = load ptr, ptr %6, align 8, !tbaa !9
  store i8 %102, ptr %103, align 1, !tbaa !8
  %104 = load ptr, ptr %4, align 8, !tbaa !4
  %105 = getelementptr inbounds nuw %struct.BigInt, ptr %104, i32 0, i32 1
  %106 = load ptr, ptr %4, align 8, !tbaa !4
  %107 = getelementptr inbounds nuw %struct.BigInt, ptr %106, i32 0, i32 0
  %108 = load i32, ptr %107, align 4, !tbaa !15
  %109 = sub nsw i32 %108, 1
  %110 = sext i32 %109 to i64
  %111 = getelementptr inbounds [546 x i8], ptr %105, i64 0, i64 %110
  %112 = load i8, ptr %111, align 1, !tbaa !8
  %113 = zext i8 %112 to i32
  %114 = icmp eq i32 %113, 0
  br i1 %114, label %115, label %120

115:                                              ; preds = %100
  %116 = load ptr, ptr %4, align 8, !tbaa !4
  %117 = getelementptr inbounds nuw %struct.BigInt, ptr %116, i32 0, i32 0
  %118 = load i32, ptr %117, align 4, !tbaa !15
  %119 = add nsw i32 %118, -1
  store i32 %119, ptr %117, align 4, !tbaa !15
  br label %120

120:                                              ; preds = %115, %100
  store i32 0, ptr %11, align 4
  br label %121

121:                                              ; preds = %120, %52, %24
  call void @llvm.lifetime.end.p0(i64 2, ptr %10) #4
  call void @llvm.lifetime.end.p0(i64 2, ptr %9) #4
  call void @llvm.lifetime.end.p0(i64 8, ptr %8) #4
  call void @llvm.lifetime.end.p0(i64 4, ptr %7) #4
  %122 = load i32, ptr %11, align 4
  switch i32 %122, label %124 [
    i32 0, label %123
    i32 1, label %123
  ]

123:                                              ; preds = %121, %121
  ret void

124:                                              ; preds = %121
  unreachable
}