; Function Attrs: nofree norecurse nosync nounwind memory(argmem: readwrite) uwtable
define void @ff_big_div(ptr noundef captures(none) %0, i8 noundef zeroext %1, ptr noundef writeonly captures(none) %2) local_unnamed_addr #3 {
  %4 = icmp eq i8 %1, 1
  br i1 %4, label %8, label %5

5:                                                ; preds = %3
  %6 = load i32, ptr %0, align 4, !tbaa !4
  %7 = icmp eq i32 %6, 0
  br i1 %7, label %8, label %9

8:                                                ; preds = %5, %3
  store i8 0, ptr %2, align 1, !tbaa !9
  br label %42

9:                                                ; preds = %5
  %10 = icmp eq i8 %1, 0
  br i1 %10, label %11, label %19

11:                                               ; preds = %9
  %12 = add nsw i32 %6, -1
  store i32 %12, ptr %0, align 4, !tbaa !4
  %13 = getelementptr inbounds nuw i8, ptr %0, i64 4
  %14 = load i8, ptr %13, align 1, !tbaa !9
  store i8 %14, ptr %2, align 1, !tbaa !9
  %.not3643 = icmp eq i32 %12, 0
  br i1 %.not3643, label %._crit_edge, label %.lr.ph.preheader

.lr.ph.preheader:                                 ; preds = %11
  %scevgep = getelementptr i8, ptr %0, i64 5
  %15 = zext i32 %12 to i64
  tail call void @llvm.memmove.p0.p0.i64(ptr nonnull align 1 %13, ptr align 1 %scevgep, i64 %15, i1 false), !tbaa !9
  %16 = add i32 %6, -2
  %17 = zext i32 %16 to i64
  %18 = getelementptr i8, ptr %0, i64 %17
  %scevgep47 = getelementptr i8, ptr %18, i64 5
  br label %._crit_edge

._crit_edge:                                      ; preds = %.lr.ph.preheader, %11
  %.031.lcssa = phi ptr [ %13, %11 ], [ %scevgep47, %.lr.ph.preheader ]
  store i8 0, ptr %.031.lcssa, align 1, !tbaa !9
  br label %42

19:                                               ; preds = %9
  %20 = getelementptr inbounds nuw i8, ptr %0, i64 4
  %21 = sext i32 %6 to i64
  %22 = getelementptr inbounds i8, ptr %20, i64 %21
  %.rhs.trunc = zext i8 %1 to i16
  br label %23

23:                                               ; preds = %19, %23
  %.042 = phi i16 [ 0, %19 ], [ %31, %23 ]
  %.141 = phi ptr [ %22, %19 ], [ %26, %23 ]
  %.13340 = phi i32 [ %6, %19 ], [ %24, %23 ]
  %24 = add nsw i32 %.13340, -1
  %25 = shl nuw i16 %.042, 8
  %26 = getelementptr inbounds i8, ptr %.141, i64 -1
  %27 = load i8, ptr %26, align 1, !tbaa !9
  %28 = zext i8 %27 to i16
  %29 = or disjoint i16 %25, %28
  %30 = udiv i16 %29, %.rhs.trunc
  %31 = urem i16 %29, %.rhs.trunc
  %32 = trunc i16 %30 to i8
  store i8 %32, ptr %26, align 1, !tbaa !9
  %.not = icmp eq i32 %24, 0
  br i1 %.not, label %33, label %23, !llvm.loop !12

33:                                               ; preds = %23
  %34 = trunc nuw i16 %31 to i8
  store i8 %34, ptr %2, align 1, !tbaa !9
  %35 = load i32, ptr %0, align 4, !tbaa !4
  %36 = add nsw i32 %35, -1
  %37 = sext i32 %36 to i64
  %38 = getelementptr inbounds [546 x i8], ptr %20, i64 0, i64 %37
  %39 = load i8, ptr %38, align 1, !tbaa !9
  %40 = icmp eq i8 %39, 0
  br i1 %40, label %41, label %42

41:                                               ; preds = %33
  store i32 %36, ptr %0, align 4, !tbaa !4
  br label %42

42:                                               ; preds = %33, %41, %._crit_edge, %8
  ret void
}